target datalayout = "e-m:e-p270:32:32-p271:32:32-p272:64:64-i64:64-i128:128-f80:128-n8:16:32:64-S128"
target triple = "x86_64-pc-linux-gnu"

%struct.jpeg_decompress_struct = type { ptr, ptr, ptr, ptr, i32, i32, ptr, i32, i32, i32, i32, i32, i32, i32, double, i32, i32, i32, i32, i32, i32, i32, i32, i32, i32, i32, i32, i32, i32, i32, i32, i32, i32, ptr, i32, i32, i32, i32, i32, ptr, [4 x ptr], [4 x ptr], [4 x ptr], i32, ptr, i32, i32, [16 x i8], [16 x i8], [16 x i8], i32, i32, i8, i8, i8, i16, i16, i32, i8, i32, ptr, i32, i32, i32, i32, ptr, i32, [4 x ptr], i32, i32, i32, [10 x i32], i32, i32, i32, i32, i32, ptr, ptr, ptr, ptr, ptr, ptr, ptr, ptr, ptr, ptr, ptr }
%struct.jpeg_input_controller = type { ptr, ptr, ptr, ptr, i32, i32 }
%struct.jpeg_progress_mgr = type { ptr, i64, i64, i32, i32 }
%struct.jpeg_error_mgr = type { ptr, ptr, ptr, ptr, ptr, i32, %union.anon, i32, i64, ptr, i32, ptr, i32, i32 }
%union.anon = type { [8 x i32], [48 x i8] }

; Function Attrs: nounwind uwtable
define i32 @jpeg_start_decompress(ptr noundef %0) #0 {
  %2 = alloca i32, align 4
  %3 = alloca ptr, align 8
  %4 = alloca i32, align 4
  %5 = alloca i32, align 4
  store ptr %0, ptr %3, align 8, !tbaa !3
  %6 = load ptr, ptr %3, align 8, !tbaa !3
  %7 = getelementptr inbounds nuw %struct.jpeg_decompress_struct, ptr %6, i32 0, i32 5
  %8 = load i32, ptr %7, align 4, !tbaa !8
  %9 = icmp eq i32 %8, 202
  br i1 %9, label %10, label %22

10:                                               ; preds = %1
  %11 = load ptr, ptr %3, align 8, !tbaa !3
  call void @jinit_master_decompress(ptr noundef %11)
  %12 = load ptr, ptr %3, align 8, !tbaa !3
  %13 = getelementptr inbounds nuw %struct.jpeg_decompress_struct, ptr %12, i32 0, i32 15
  %14 = load i32, ptr %13, align 8, !tbaa !32
  %15 = icmp ne i32 %14, 0
  br i1 %15, label %16, label %19

16:                                               ; preds = %10
  %17 = load ptr, ptr %3, align 8, !tbaa !3
  %18 = getelementptr inbounds nuw %struct.jpeg_decompress_struct, ptr %17, i32 0, i32 5
  store i32 207, ptr %18, align 4, !tbaa !8
  store i32 1, ptr %2, align 4
  br label %137

19:                                               ; preds = %10
  %20 = load ptr, ptr %3, align 8, !tbaa !3
  %21 = getelementptr inbounds nuw %struct.jpeg_decompress_struct, ptr %20, i32 0, i32 5
  store i32 203, ptr %21, align 4, !tbaa !8
  br label %22

22:                                               ; preds = %19, %1
  %23 = load ptr, ptr %3, align 8, !tbaa !3
  %24 = getelementptr inbounds nuw %struct.jpeg_decompress_struct, ptr %23, i32 0, i32 5
  %25 = load i32, ptr %24, align 4, !tbaa !8
  %26 = icmp eq i32 %25, 203
  br i1 %26, label %27, label %109

27:                                               ; preds = %22
  %28 = load ptr, ptr %3, align 8, !tbaa !3
  %29 = getelementptr inbounds nuw %struct.jpeg_decompress_struct, ptr %28, i32 0, i32 81
  %30 = load ptr, ptr %29, align 8, !tbaa !33
  %31 = getelementptr inbounds nuw %struct.jpeg_input_controller, ptr %30, i32 0, i32 4
  %32 = load i32, ptr %31, align 8, !tbaa !34
  %33 = icmp ne i32 %32, 0
  br i1 %33, label %34, label %103

34:                                               ; preds = %27
  br label %35

35:                                               ; preds = %101, %34
  call void @llvm.lifetime.start.p0(i64 4, ptr %4) #4
  %36 = load ptr, ptr %3, align 8, !tbaa !3
  %37 = getelementptr inbounds nuw %struct.jpeg_decompress_struct, ptr %36, i32 0, i32 2
  %38 = load ptr, ptr %37, align 8, !tbaa !36
  %39 = icmp ne ptr %38, null
  br i1 %39, label %40, label %47

40:                                               ; preds = %35
  %41 = load ptr, ptr %3, align 8, !tbaa !3
  %42 = getelementptr inbounds nuw %struct.jpeg_decompress_struct, ptr %41, i32 0, i32 2
  %43 = load ptr, ptr %42, align 8, !tbaa !36
  %44 = getelementptr inbounds nuw %struct.jpeg_progress_mgr, ptr %43, i32 0, i32 0
  %45 = load ptr, ptr %44, align 8, !tbaa !37
  %46 = load ptr, ptr %3, align 8, !tbaa !3
  call void %45(ptr noundef %46)
  br label %47

47:                                               ; preds = %40, %35
  %48 = load ptr, ptr %3, align 8, !tbaa !3
  %49 = getelementptr inbounds nuw %struct.jpeg_decompress_struct, ptr %48, i32 0, i32 81
  %50 = load ptr, ptr %49, align 8, !tbaa !33
  %51 = getelementptr inbounds nuw %struct.jpeg_input_controller, ptr %50, i32 0, i32 0
  %52 = load ptr, ptr %51, align 8, !tbaa !40
  %53 = load ptr, ptr %3, align 8, !tbaa !3
  %54 = call i32 %52(ptr noundef %53)
  store i32 %54, ptr %4, align 4, !tbaa !41
  %55 = load i32, ptr %4, align 4, !tbaa !41
  %56 = icmp eq i32 %55, 0
  br i1 %56, label %57, label %58

57:                                               ; preds = %47
  store i32 0, ptr %2, align 4
  store i32 1, ptr %5, align 4
  br label %99

58:                                               ; preds = %47
  %59 = load i32, ptr %4, align 4, !tbaa !41
  %60 = icmp eq i32 %59, 2
  br i1 %60, label %61, label %62

61:                                               ; preds = %58
  store i32 2, ptr %5, align 4
  br label %99

62:                                               ; preds = %58
  %63 = load ptr, ptr %3, align 8, !tbaa !3
  %64 = getelementptr inbounds nuw %struct.jpeg_decompress_struct, ptr %63, i32 0, i32 2
  %65 = load ptr, ptr %64, align 8, !tbaa !36
  %66 = icmp ne ptr %65, null
  br i1 %66, label %67, label %98

67:                                               ; preds = %62
  %68 = load i32, ptr %4, align 4, !tbaa !41
  %69 = icmp eq i32 %68, 3
  br i1 %69, label %73, label %70

70:                                               ; preds = %67
  %71 = load i32, ptr %4, align 4, !tbaa !41
  %72 = icmp eq i32 %71, 1
  br i1 %72, label %73, label %98

73:                                               ; preds = %70, %67
  %74 = load ptr, ptr %3, align 8, !tbaa !3
  %75 = getelementptr inbounds nuw %struct.jpeg_decompress_struct, ptr %74, i32 0, i32 2
  %76 = load ptr, ptr %75, align 8, !tbaa !36
  %77 = getelementptr inbounds nuw %struct.jpeg_progress_mgr, ptr %76, i32 0, i32 1
  %78 = load i64, ptr %77, align 8, !tbaa !42
  %79 = add nsw i64 %78, 1
  store i64 %79, ptr %77, align 8, !tbaa !42
  %80 = load ptr, ptr %3, align 8, !tbaa !3
  %81 = getelementptr inbounds nuw %struct.jpeg_decompress_struct, ptr %80, i32 0, i32 2
  %82 = load ptr, ptr %81, align 8, !tbaa !36
  %83 = getelementptr inbounds nuw %struct.jpeg_progress_mgr, ptr %82, i32 0, i32 2
  %84 = load i64, ptr %83, align 8, !tbaa !43
  %85 = icmp sge i64 %79, %84
  br i1 %85, label %86, label %97

86:                                               ; preds = %73
  %87 = load ptr, ptr %3, align 8, !tbaa !3
  %88 = getelementptr inbounds nuw %struct.jpeg_decompress_struct, ptr %87, i32 0, i32 64
  %89 = load i32, ptr %88, align 4, !tbaa !44
  %90 = zext i32 %89 to i64
  %91 = load ptr, ptr %3, align 8, !tbaa !3
  %92 = getelementptr inbounds nuw %struct.jpeg_decompress_struct, ptr %91, i32 0, i32 2
  %93 = load ptr, ptr %92, align 8, !tbaa !36
  %94 = getelementptr inbounds nuw %struct.jpeg_progress_mgr, ptr %93, i32 0, i32 2
  %95 = load i64, ptr %94, align 8, !tbaa !43
  %96 = add nsw i64 %95, %90
  store i64 %96, ptr %94, align 8, !tbaa !43
  br label %97

97:                                               ; preds = %86, %73
  br label %98

98:                                               ; preds = %97, %70, %62
  store i32 0, ptr %5, align 4
  br label %99

99:                                               ; preds = %98, %61, %57
  call void @llvm.lifetime.end.p0(i64 4, ptr %4) #4
  %100 = load i32, ptr %5, align 4
  switch i32 %100, label %139 [
    i32 0, label %101
    i32 1, label %137
    i32 2, label %102
  ]

101:                                              ; preds = %99
  br label %35

102:                                              ; preds = %99
  br label %103

103:                                              ; preds = %102, %27
  %104 = load ptr, ptr %3, align 8, !tbaa !3
  %105 = getelementptr inbounds nuw %struct.jpeg_decompress_struct, ptr %104, i32 0, i32 35
  %106 = load i32, ptr %105, align 4, !tbaa !45
  %107 = load ptr, ptr %3, align 8, !tbaa !3
  %108 = getelementptr inbounds nuw %struct.jpeg_decompress_struct, ptr %107, i32 0, i32 37
  store i32 %106, ptr %108, align 4, !tbaa !46
  br label %134

109:                                              ; preds = %22
  %110 = load ptr, ptr %3, align 8, !tbaa !3
  %111 = getelementptr inbounds nuw %struct.jpeg_decompress_struct, ptr %110, i32 0, i32 5
  %112 = load i32, ptr %111, align 4, !tbaa !8
  %113 = icmp ne i32 %112, 204
  br i1 %113, label %114, label %133

114:                                              ; preds = %109
  %115 = load ptr, ptr %3, align 8, !tbaa !3
  %116 = getelementptr inbounds nuw %struct.jpeg_decompress_struct, ptr %115, i32 0, i32 0
  %117 = load ptr, ptr %116, align 8, !tbaa !47
  %118 = getelementptr inbounds nuw %struct.jpeg_error_mgr, ptr %117, i32 0, i32 5
  store i32 20, ptr %118, align 8, !tbaa !48
  %119 = load ptr, ptr %3, align 8, !tbaa !3
  %120 = getelementptr inbounds nuw %struct.jpeg_decompress_struct, ptr %119, i32 0, i32 5
  %121 = load i32, ptr %120, align 4, !tbaa !8
  %122 = load ptr, ptr %3, align 8, !tbaa !3
  %123 = getelementptr inbounds nuw %struct.jpeg_decompress_struct, ptr %122, i32 0, i32 0
  %124 = load ptr, ptr %123, align 8, !tbaa !47
  %125 = getelementptr inbounds nuw %struct.jpeg_error_mgr, ptr %124, i32 0, i32 6
  %126 = getelementptr inbounds [8 x i32], ptr %125, i64 0, i64 0
  store i32 %121, ptr %126, align 4, !tbaa !50
  %127 = load ptr, ptr %3, align 8, !tbaa !3
  %128 = getelementptr inbounds nuw %struct.jpeg_decompress_struct, ptr %127, i32 0, i32 0
  %129 = load ptr, ptr %128, align 8, !tbaa !47
  %130 = getelementptr inbounds nuw %struct.jpeg_error_mgr, ptr %129, i32 0, i32 0
  %131 = load ptr, ptr %130, align 8, !tbaa !51
  %132 = load ptr, ptr %3, align 8, !tbaa !3
  call void %131(ptr noundef %132)
  br label %133

133:                                              ; preds = %114, %109
  br label %134

134:                                              ; preds = %133, %103
  %135 = load ptr, ptr %3, align 8, !tbaa !3
  %136 = call i32 @output_pass_setup(ptr noundef %135)
  store i32 %136, ptr %2, align 4
  br label %137

137:                                              ; preds = %134, %99, %16
  %138 = load i32, ptr %2, align 4
  ret i32 %138

139:                                              ; preds = %99
  unreachable
}