; Function Attrs: nounwind uwtable
define range(i32 0, 2) i32 @jpeg_start_decompress(ptr noundef %0) local_unnamed_addr #0 {
  %2 = getelementptr inbounds nuw i8, ptr %0, i64 36
  %3 = load i32, ptr %2, align 4, !tbaa !3
  switch i32 %3, label %39 [
    i32 202, label %4
    i32 203, label %8
    i32 204, label %45
  ]

4:                                                ; preds = %1
  tail call void @jinit_master_decompress(ptr noundef nonnull %0) #5
  %5 = getelementptr inbounds nuw i8, ptr %0, i64 88
  %6 = load i32, ptr %5, align 8, !tbaa !30
  %.not = icmp eq i32 %6, 0
  br i1 %.not, label %.thread, label %7

7:                                                ; preds = %4
  store i32 207, ptr %2, align 4, !tbaa !3
  br label %.thread44

.thread:                                          ; preds = %4
  store i32 203, ptr %2, align 4, !tbaa !3
  br label %8

8:                                                ; preds = %1, %.thread
  %9 = getelementptr inbounds nuw i8, ptr %0, i64 576
  %10 = load ptr, ptr %9, align 8, !tbaa !31
  %11 = getelementptr inbounds nuw i8, ptr %10, i64 32
  %12 = load i32, ptr %11, align 8, !tbaa !32
  %.not39 = icmp eq i32 %12, 0
  br i1 %.not39, label %.thread46, label %.preheader

.preheader:                                       ; preds = %8
  %13 = getelementptr inbounds nuw i8, ptr %0, i64 16
  %14 = getelementptr inbounds nuw i8, ptr %0, i64 420
  %.pre = load ptr, ptr %13, align 8, !tbaa !34
  br label %15

15:                                               ; preds = %.backedge, %.preheader
  %16 = phi ptr [ %.pre, %.preheader ], [ %24, %.backedge ]
  %.not40 = icmp eq ptr %16, null
  br i1 %.not40, label %19, label %17

17:                                               ; preds = %15
  %18 = load ptr, ptr %16, align 8, !tbaa !35
  tail call void %18(ptr noundef nonnull %0) #5
  br label %19

19:                                               ; preds = %17, %15
  %20 = load ptr, ptr %9, align 8, !tbaa !31
  %21 = load ptr, ptr %20, align 8, !tbaa !38
  %22 = tail call i32 %21(ptr noundef nonnull %0) #5
  switch i32 %22, label %23 [
    i32 0, label %.thread44
    i32 2, label %.thread46
  ]

23:                                               ; preds = %19
  %24 = load ptr, ptr %13, align 8, !tbaa !34
  %.not41 = icmp ne ptr %24, null
  %25 = and i32 %22, -3
  %or.cond = icmp eq i32 %25, 1
  %or.cond43 = and i1 %or.cond, %.not41
  br i1 %or.cond43, label %26, label %.backedge

.backedge:                                        ; preds = %23, %32, %26
  br label %15

26:                                               ; preds = %23
  %27 = getelementptr inbounds nuw i8, ptr %24, i64 8
  %28 = load i64, ptr %27, align 8, !tbaa !39
  %29 = add nsw i64 %28, 1
  store i64 %29, ptr %27, align 8, !tbaa !39
  %30 = getelementptr inbounds nuw i8, ptr %24, i64 16
  %31 = load i64, ptr %30, align 8, !tbaa !40
  %.not42 = icmp slt i64 %29, %31
  br i1 %.not42, label %.backedge, label %32

32:                                               ; preds = %26
  %33 = load i32, ptr %14, align 4, !tbaa !41
  %34 = zext i32 %33 to i64
  %35 = add nsw i64 %31, %34
  store i64 %35, ptr %30, align 8, !tbaa !40
  br label %.backedge

.thread46:                                        ; preds = %19, %8
  %36 = getelementptr inbounds nuw i8, ptr %0, i64 172
  %37 = load i32, ptr %36, align 4, !tbaa !42
  %38 = getelementptr inbounds nuw i8, ptr %0, i64 180
  store i32 %37, ptr %38, align 4, !tbaa !43
  br label %45

39:                                               ; preds = %1
  %40 = load ptr, ptr %0, align 8, !tbaa !44
  %41 = getelementptr inbounds nuw i8, ptr %40, i64 40
  store i32 20, ptr %41, align 8, !tbaa !45
  %42 = getelementptr inbounds nuw i8, ptr %40, i64 44
  store i32 %3, ptr %42, align 4, !tbaa !47
  %43 = load ptr, ptr %0, align 8, !tbaa !44
  %44 = load ptr, ptr %43, align 8, !tbaa !48
  tail call void %44(ptr noundef nonnull %0) #5
  br label %45

45:                                               ; preds = %1, %39, %.thread46
  %46 = tail call fastcc i32 @output_pass_setup(ptr noundef nonnull %0)
  br label %.thread44

.thread44:                                        ; preds = %19, %45, %7
  %.032 = phi i32 [ 1, %7 ], [ %46, %45 ], [ %22, %19 ]
  ret i32 %.032
}